target datalayout = "e-m:e-p270:32:32-p271:32:32-p272:64:64-i64:64-i128:128-f80:128-n8:16:32:64-S128"
target triple = "x86_64-pc-linux-gnu"

%struct.GCRef = type { i64 }
%struct.lua_State = type { %struct.GCRef, i8, i8, i8, i8, %struct.MRef, %struct.GCRef, ptr, ptr, %struct.MRef, %struct.MRef, %struct.GCRef, %struct.GCRef, ptr, i32 }
%struct.MRef = type { i64 }
%union.TValue = type { i64 }
%struct.global_State = type { ptr, ptr, %struct.GCState, %struct.GCstr, i8, i8, i8, i8, %struct.StrInternState, i32, %struct.GCRef, %struct.SBuf, %union.TValue, %union.TValue, %struct.Node, %union.TValue, %struct.GCupval, i32, i32, ptr, ptr, ptr, i32, i32, %struct.GCRef, %struct.MRef, %struct.MRef, %struct.PRNGState, [39 x %struct.GCRef] }
%struct.GCState = type { i64, i64, i8, i8, i8, i8, i32, %struct.GCRef, %struct.MRef, %struct.GCRef, %struct.GCRef, %struct.GCRef, %struct.GCRef, i64, i64, i32, i32, %struct.MRef }
%struct.GCstr = type { %struct.GCRef, i8, i8, i8, i8, i32, i32, i32 }
%struct.StrInternState = type { ptr, i32, i32, i32, i8, i8, i8, i8, i64 }
%struct.SBuf = type { ptr, ptr, ptr, %struct.MRef }
%struct.Node = type { %union.TValue, %union.TValue, %struct.MRef }
%struct.GCupval = type { %struct.GCRef, i8, i8, i8, i8, %union.anon, %struct.MRef, i32 }
%union.anon = type { %struct.anon.1 }
%struct.anon.1 = type { %struct.GCRef, %struct.GCRef }
%struct.PRNGState = type { [4 x i64] }
%struct.GCfuncC = type { %struct.GCRef, i8, i8, i8, i8, %struct.GCRef, %struct.GCRef, %struct.MRef, ptr, [1 x %union.TValue] }
%struct.GCfuncL = type { %struct.GCRef, i8, i8, i8, i8, %struct.GCRef, %struct.GCRef, %struct.MRef, [1 x %struct.GCRef] }
%struct.GCproto = type { %struct.GCRef, i8, i8, i8, i8, i32, i32, %struct.GCRef, %struct.MRef, %struct.MRef, i32, i32, i32, i8, i8, i16, %struct.GCRef, i32, i32, %struct.MRef, %struct.MRef, %struct.MRef }

@.str.3 = private unnamed_addr constant [24 x i8] c"store to dead GC object\00", align 1

; Function Attrs: alwaysinline nounwind uwtable
define internal void @checklivetv(ptr noundef %0, ptr noundef %1, ptr noundef %2) #3 {
  %4 = alloca ptr, align 8
  %5 = alloca ptr, align 8
  %6 = alloca ptr, align 8
  store ptr %0, ptr %4, align 8, !tbaa !18
  store ptr %1, ptr %5, align 8, !tbaa !25
  store ptr %2, ptr %6, align 8, !tbaa !50
  ret void
}

; Function Attrs: alwaysinline nounwind uwtable
define internal void @setgcV(ptr noundef %0, ptr noundef %1, ptr noundef %2, i32 noundef %3) #3 {
  %5 = alloca ptr, align 8
  %6 = alloca ptr, align 8
  %7 = alloca ptr, align 8
  %8 = alloca i32, align 4
  store ptr %0, ptr %5, align 8, !tbaa !18
  store ptr %1, ptr %6, align 8, !tbaa !25
  store ptr %2, ptr %7, align 8, !tbaa !74
  store i32 %3, ptr %8, align 4, !tbaa !4
  %9 = load ptr, ptr %6, align 8, !tbaa !25
  %10 = load ptr, ptr %7, align 8, !tbaa !74
  %11 = load i32, ptr %8, align 4, !tbaa !4
  call void @setgcVraw(ptr noundef %9, ptr noundef %10, i32 noundef %11)
  %12 = load ptr, ptr %5, align 8, !tbaa !18
  %13 = load ptr, ptr %6, align 8, !tbaa !25
  call void @checklivetv(ptr noundef %12, ptr noundef %13, ptr noundef @.str.3)
  ret void
}

; Function Attrs: alwaysinline nounwind uwtable
define internal void @setstrV(ptr noundef %0, ptr noundef %1, ptr noundef %2) #3 {
  %4 = alloca ptr, align 8
  %5 = alloca ptr, align 8
  %6 = alloca ptr, align 8
  store ptr %0, ptr %4, align 8, !tbaa !18
  store ptr %1, ptr %5, align 8, !tbaa !25
  store ptr %2, ptr %6, align 8, !tbaa !48
  %7 = load ptr, ptr %4, align 8, !tbaa !18
  %8 = load ptr, ptr %5, align 8, !tbaa !25
  %9 = load ptr, ptr %6, align 8, !tbaa !48
  call void @setgcV(ptr noundef %7, ptr noundef %8, ptr noundef %9, i32 noundef -5)
  ret void
}

; Function Attrs: alwaysinline nounwind uwtable
define internal void @setgcVraw(ptr noundef %0, ptr noundef %1, i32 noundef %2) #3 {
  %4 = alloca ptr, align 8
  %5 = alloca ptr, align 8
  %6 = alloca i32, align 4
  store ptr %0, ptr %4, align 8, !tbaa !25
  store ptr %1, ptr %5, align 8, !tbaa !74
  store i32 %2, ptr %6, align 4, !tbaa !4
  %7 = load ptr, ptr %5, align 8, !tbaa !74
  %8 = ptrtoint ptr %7 to i64
  %9 = load i32, ptr %6, align 4, !tbaa !4
  %10 = zext i32 %9 to i64
  %11 = shl i64 %10, 47
  %12 = or i64 %8, %11
  %13 = load ptr, ptr %4, align 8, !tbaa !25
  %14 = getelementptr inbounds nuw %struct.GCRef, ptr %13, i32 0, i32 0
  store i64 %12, ptr %14, align 8, !tbaa !28
  ret void
}

; Function Attrs: noinline noreturn nounwind uwtable
define hidden void @lj_err_mem(ptr noundef %0) #6 {
  %2 = alloca ptr, align 8
  %3 = alloca ptr, align 8
  store ptr %0, ptr %2, align 8, !tbaa !18
  %4 = load ptr, ptr %2, align 8, !tbaa !18
  %5 = getelementptr inbounds nuw %struct.lua_State, ptr %4, i32 0, i32 4
  %6 = load i8, ptr %5, align 1, !tbaa !41
  %7 = zext i8 %6 to i32
  %8 = icmp eq i32 %7, 6
  br i1 %8, label %9, label %13

9:                                                ; preds = %1
  %10 = load ptr, ptr %2, align 8, !tbaa !18
  %11 = getelementptr inbounds nuw %struct.lua_State, ptr %10, i32 0, i32 13
  %12 = load ptr, ptr %11, align 8, !tbaa !26
  call void @lj_vm_unwind_c(ptr noundef %12, i32 noundef 4) #18
  unreachable

13:                                               ; preds = %1
  call void @llvm.lifetime.start.p0(i64 8, ptr %3) #15
  %14 = load ptr, ptr %2, align 8, !tbaa !18
  %15 = getelementptr inbounds nuw %struct.lua_State, ptr %14, i32 0, i32 5
  %16 = getelementptr inbounds nuw %struct.MRef, ptr %15, i32 0, i32 0
  %17 = load i64, ptr %16, align 8, !tbaa !29
  %18 = inttoptr i64 %17 to ptr
  %19 = getelementptr inbounds nuw %struct.global_State, ptr %18, i32 0, i32 25
  %20 = getelementptr inbounds nuw %struct.MRef, ptr %19, i32 0, i32 0
  %21 = load i64, ptr %20, align 8, !tbaa !70
  %22 = inttoptr i64 %21 to ptr
  store ptr %22, ptr %3, align 8, !tbaa !25
  %23 = load ptr, ptr %3, align 8, !tbaa !25
  %24 = icmp ne ptr %23, null
  br i1 %24, label %25, label %29

25:                                               ; preds = %13
  %26 = load ptr, ptr %3, align 8, !tbaa !25
  %27 = load ptr, ptr %2, align 8, !tbaa !18
  %28 = getelementptr inbounds nuw %struct.lua_State, ptr %27, i32 0, i32 7
  store ptr %26, ptr %28, align 8, !tbaa !24
  br label %29

29:                                               ; preds = %25, %13
  call void @llvm.lifetime.end.p0(i64 8, ptr %3) #15
  %30 = load ptr, ptr %2, align 8, !tbaa !18
  %31 = getelementptr inbounds nuw %struct.lua_State, ptr %30, i32 0, i32 7
  %32 = load ptr, ptr %31, align 8, !tbaa !24
  %33 = getelementptr inbounds %union.TValue, ptr %32, i64 -2
  %34 = getelementptr inbounds nuw %struct.GCRef, ptr %33, i32 0, i32 0
  %35 = load i64, ptr %34, align 8, !tbaa !28
  %36 = and i64 %35, 140737488355327
  %37 = inttoptr i64 %36 to ptr
  %38 = getelementptr inbounds nuw %struct.GCfuncC, ptr %37, i32 0, i32 3
  %39 = load i8, ptr %38, align 2, !tbaa !28
  %40 = zext i8 %39 to i32
  %41 = icmp eq i32 %40, 0
  br i1 %41, label %42, label %94

42:                                               ; preds = %29
  %43 = load ptr, ptr %2, align 8, !tbaa !18
  %44 = getelementptr inbounds nuw %struct.lua_State, ptr %43, i32 0, i32 7
  %45 = load ptr, ptr %44, align 8, !tbaa !24
  %46 = load ptr, ptr %2, align 8, !tbaa !18
  %47 = getelementptr inbounds nuw %struct.lua_State, ptr %46, i32 0, i32 7
  %48 = load ptr, ptr %47, align 8, !tbaa !24
  %49 = getelementptr inbounds %union.TValue, ptr %48, i64 -2
  %50 = getelementptr inbounds nuw %struct.GCRef, ptr %49, i32 0, i32 0
  %51 = load i64, ptr %50, align 8, !tbaa !28
  %52 = and i64 %51, 140737488355327
  %53 = inttoptr i64 %52 to ptr
  %54 = getelementptr inbounds nuw %struct.GCfuncL, ptr %53, i32 0, i32 7
  %55 = getelementptr inbounds nuw %struct.MRef, ptr %54, i32 0, i32 0
  %56 = load i64, ptr %55, align 8, !tbaa !28
  %57 = inttoptr i64 %56 to ptr
  %58 = getelementptr inbounds i8, ptr %57, i64 -104
  %59 = getelementptr inbounds nuw %struct.GCproto, ptr %58, i32 0, i32 4
  %60 = load i8, ptr %59, align 1, !tbaa !71
  %61 = zext i8 %60 to i32
  %62 = sext i32 %61 to i64
  %63 = getelementptr inbounds %union.TValue, ptr %45, i64 %62
  %64 = load ptr, ptr %2, align 8, !tbaa !18
  %65 = getelementptr inbounds nuw %struct.lua_State, ptr %64, i32 0, i32 8
  store ptr %63, ptr %65, align 8, !tbaa !20
  %66 = load ptr, ptr %2, align 8, !tbaa !18
  %67 = getelementptr inbounds nuw %struct.lua_State, ptr %66, i32 0, i32 8
  %68 = load ptr, ptr %67, align 8, !tbaa !20
  %69 = load ptr, ptr %2, align 8, !tbaa !18
  %70 = getelementptr inbounds nuw %struct.lua_State, ptr %69, i32 0, i32 9
  %71 = getelementptr inbounds nuw %struct.MRef, ptr %70, i32 0, i32 0
  %72 = load i64, ptr %71, align 8, !tbaa !73
  %73 = inttoptr i64 %72 to ptr
  %74 = icmp ugt ptr %68, %73
  %75 = xor i1 %74, true
  %76 = xor i1 %75, true
  %77 = zext i1 %76 to i32
  %78 = sext i32 %77 to i64
  %79 = call i64 @llvm.expect.i64(i64 %78, i64 0)
  %80 = icmp ne i64 %79, 0
  br i1 %80, label %81, label %93

81:                                               ; preds = %42
  %82 = load ptr, ptr %2, align 8, !tbaa !18
  %83 = getelementptr inbounds nuw %struct.lua_State, ptr %82, i32 0, i32 7
  %84 = load ptr, ptr %83, align 8, !tbaa !24
  %85 = load ptr, ptr %2, align 8, !tbaa !18
  %86 = getelementptr inbounds nuw %struct.lua_State, ptr %85, i32 0, i32 8
  store ptr %84, ptr %86, align 8, !tbaa !20
  %87 = load ptr, ptr %2, align 8, !tbaa !18
  %88 = getelementptr inbounds nuw %struct.lua_State, ptr %87, i32 0, i32 7
  %89 = load ptr, ptr %88, align 8, !tbaa !24
  %90 = getelementptr inbounds %union.TValue, ptr %89, i64 -1
  %91 = getelementptr inbounds %union.TValue, ptr %90, i64 -1
  %92 = load ptr, ptr %2, align 8, !tbaa !18
  call void @setgcVraw(ptr noundef %91, ptr noundef %92, i32 noundef -7)
  br label %93

93:                                               ; preds = %81, %42
  br label %94

94:                                               ; preds = %93, %29
  %95 = load ptr, ptr %2, align 8, !tbaa !18
  %96 = load ptr, ptr %2, align 8, !tbaa !18
  %97 = getelementptr inbounds nuw %struct.lua_State, ptr %96, i32 0, i32 8
  %98 = load ptr, ptr %97, align 8, !tbaa !20
  %99 = getelementptr inbounds nuw %union.TValue, ptr %98, i32 1
  store ptr %99, ptr %97, align 8, !tbaa !20
  %100 = load ptr, ptr %2, align 8, !tbaa !18
  %101 = call ptr @lj_err_str(ptr noundef %100, i32 noundef 0)
  call void @setstrV(ptr noundef %95, ptr noundef %98, ptr noundef %101)
  %102 = load ptr, ptr %2, align 8, !tbaa !18
  call void @lj_err_throw(ptr noundef %102, i32 noundef 4) #18
  unreachable
}