; Function Attrs: noinline noreturn nounwind uwtable
define hidden void @lj_err_mem(ptr noundef %0) local_unnamed_addr #5 {
  %2 = getelementptr inbounds nuw i8, ptr %0, i64 11
  %3 = load i8, ptr %2, align 1, !tbaa !33
  %4 = icmp eq i8 %3, 6
  br i1 %4, label %5, label %8

5:                                                ; preds = %1
  %6 = getelementptr inbounds nuw i8, ptr %0, i64 80
  %7 = load ptr, ptr %6, align 8, !tbaa !9
  tail call void @lj_vm_unwind_c(ptr noundef %7, i32 noundef 4) #18
  unreachable

8:                                                ; preds = %1
  %9 = getelementptr inbounds nuw i8, ptr %0, i64 16
  %10 = load i64, ptr %9, align 8, !tbaa !21
  %11 = inttoptr i64 %10 to ptr
  %12 = getelementptr inbounds nuw i8, ptr %11, i64 376
  %13 = load i64, ptr %12, align 8, !tbaa !59
  %.not = icmp eq i64 %13, 0
  br i1 %.not, label %._crit_edge, label %14

._crit_edge:                                      ; preds = %8
  %.phi.trans.insert = getelementptr inbounds nuw i8, ptr %0, i64 32
  %.pre = load ptr, ptr %.phi.trans.insert, align 8, !tbaa !15
  br label %17

14:                                               ; preds = %8
  %15 = inttoptr i64 %13 to ptr
  %16 = getelementptr inbounds nuw i8, ptr %0, i64 32
  store ptr %15, ptr %16, align 8, !tbaa !15
  br label %17

17:                                               ; preds = %._crit_edge, %14
  %18 = phi ptr [ %.pre, %._crit_edge ], [ %15, %14 ]
  %19 = getelementptr inbounds i8, ptr %18, i64 -16
  %20 = load i64, ptr %19, align 8, !tbaa !18
  %21 = and i64 %20, 140737488355327
  %22 = inttoptr i64 %21 to ptr
  %23 = getelementptr inbounds nuw i8, ptr %22, i64 10
  %24 = load i8, ptr %23, align 2, !tbaa !18
  %25 = icmp eq i8 %24, 0
  br i1 %25, label %26, label %42

26:                                               ; preds = %17
  %27 = getelementptr inbounds nuw i8, ptr %22, i64 32
  %28 = load i64, ptr %27, align 8, !tbaa !18
  %29 = inttoptr i64 %28 to ptr
  %30 = getelementptr inbounds i8, ptr %29, i64 -93
  %31 = load i8, ptr %30, align 1, !tbaa !60
  %32 = zext i8 %31 to i64
  %33 = getelementptr inbounds nuw %union.TValue, ptr %18, i64 %32
  %34 = getelementptr inbounds nuw i8, ptr %0, i64 40
  store ptr %33, ptr %34, align 8, !tbaa !20
  %35 = getelementptr inbounds nuw i8, ptr %0, i64 48
  %36 = load i64, ptr %35, align 8, !tbaa !62
  %37 = inttoptr i64 %36 to ptr
  %38 = icmp ugt ptr %33, %37
  br i1 %38, label %39, label %42, !prof !63

39:                                               ; preds = %26
  store ptr %18, ptr %34, align 8, !tbaa !20
  %40 = ptrtoint ptr %0 to i64
  %41 = or i64 %40, -985162418487296
  store i64 %41, ptr %19, align 8, !tbaa !18
  br label %42

42:                                               ; preds = %26, %39, %17
  %43 = getelementptr inbounds nuw i8, ptr %0, i64 40
  %44 = load ptr, ptr %43, align 8, !tbaa !20
  %45 = getelementptr inbounds nuw i8, ptr %44, i64 8
  store ptr %45, ptr %43, align 8, !tbaa !20
  %46 = tail call ptr @lj_err_str(ptr noundef nonnull %0, i32 noundef 0)
  %47 = ptrtoint ptr %46 to i64
  %48 = or i64 %47, -703687441776640
  store i64 %48, ptr %44, align 8, !tbaa !18
  tail call void @lj_err_throw(ptr noundef nonnull %0, i32 noundef 4) #19
  unreachable
}